; Function Attrs: mustprogress uwtable
define void @_ZN7rocksdb21OptimisticTransaction24CommitWithSerialValidateEv(ptr noalias sret(%"class.rocksdb::Status") align 8 %agg.result, ptr noundef nonnull align 8 dereferenceable(328) %this) local_unnamed_addr #2 align 2 personality ptr @__gxx_personality_v0 {
entry:
  %callback = alloca %"class.rocksdb::OptimisticTransactionCallback", align 8
  store ptr getelementptr inbounds ({ [6 x ptr] }, ptr @_ZTVN7rocksdb29OptimisticTransactionCallbackE, i64 0, i32 0, i64 2), ptr %callback, align 8
  %txn_.i = getelementptr inbounds i8, ptr %callback, i64 8
  store ptr %this, ptr %txn_.i, align 8
  %db_ = getelementptr inbounds i8, ptr %this, i64 64
  %0 = load ptr, ptr %db_, align 8
  %vtable = load ptr, ptr %0, align 8
  %vfn = getelementptr inbounds i8, ptr %vtable, i64 1176
  %1 = load ptr, ptr %vfn, align 8
  %call = tail call noundef ptr %1(ptr noundef nonnull align 8 dereferenceable(8) %0)
  %write_options_ = getelementptr inbounds i8, ptr %this, i64 80
  %vtable4 = load ptr, ptr %this, align 8
  %vfn5 = getelementptr inbounds i8, ptr %vtable4, i64 504
  %2 = load ptr, ptr %vfn5, align 8
  %call7 = tail call noundef ptr %2(ptr noundef nonnull align 8 dereferenceable(320) %this)
  %vtable8 = load ptr, ptr %call7, align 8
  %vfn9 = getelementptr inbounds i8, ptr %vtable8, i64 256
  %3 = load ptr, ptr %vfn9, align 8
  %call11 = tail call noundef ptr %3(ptr noundef nonnull align 8 dereferenceable(16) %call7)
  %vtable12 = load ptr, ptr %call, align 64
  %vfn13 = getelementptr inbounds i8, ptr %vtable12, i64 1240
  %4 = load ptr, ptr %vfn13, align 8
  call void %4(ptr sret(%"class.rocksdb::Status") align 8 %agg.result, ptr noundef nonnull align 64 dereferenceable(6660) %call, ptr noundef nonnull align 8 dereferenceable(24) %write_options_, ptr noundef %call11, ptr noundef nonnull %callback)
  %5 = load i8, ptr %agg.result, align 8
  %cmp.i = icmp eq i8 %5, 0
  br i1 %cmp.i, label %if.then, label %nrvo.skipdtor

if.then:                                          ; preds = %entry
  %vtable18 = load ptr, ptr %this, align 8
  %vfn19 = getelementptr inbounds i8, ptr %vtable18, i64 680
  %6 = load ptr, ptr %vfn19, align 8
  invoke void %6(ptr noundef nonnull align 8 dereferenceable(328) %this)
          to label %nrvo.skipdtor unwind label %lpad15

lpad15:                                           ; preds = %if.then
  %7 = landingpad { ptr, i32 }
          cleanup
  %state_.i = getelementptr inbounds i8, ptr %agg.result, i64 8
  %8 = load ptr, ptr %state_.i, align 8
  %cmp.not.i.i = icmp eq ptr %8, null
  br i1 %cmp.not.i.i, label %_ZN7rocksdb6StatusD2Ev.exit, label %_ZNKSt14default_deleteIA_KcEclIS0_EENSt9enable_ifIXsr14is_convertibleIPA_T_PS1_EE5valueEvE4typeEPS5_.exit.i.i

_ZNKSt14default_deleteIA_KcEclIS0_EENSt9enable_ifIXsr14is_convertibleIPA_T_PS1_EE5valueEvE4typeEPS5_.exit.i.i: ; preds = %lpad15
  call void @_ZdaPv(ptr noundef nonnull %8) #16
  br label %_ZN7rocksdb6StatusD2Ev.exit

_ZN7rocksdb6StatusD2Ev.exit:                      ; preds = %lpad15, %_ZNKSt14default_deleteIA_KcEclIS0_EENSt9enable_ifIXsr14is_convertibleIPA_T_PS1_EE5valueEvE4typeEPS5_.exit.i.i
  store ptr null, ptr %state_.i, align 8
  resume { ptr, i32 } %7

nrvo.skipdtor:                                    ; preds = %entry, %if.then
  ret void
}